; Function Attrs: mustprogress uwtable
define internal void @_ZL73InitDefaultsscc_info_JspbEncodingConfig_conformance_2fconformance_2eprotov() #3 personality ptr @__gxx_personality_v0 {
entry:
  tail call void @_ZN6google8protobuf8internal13VerifyVersionEiiPKc(i32 noundef 3012004, i32 noundef 3012000, ptr noundef nonnull @.str.4)
  store ptr null, ptr getelementptr inbounds (%"class.conformance::JspbEncodingConfigDefaultTypeInternal", ptr @_ZN11conformance37_JspbEncodingConfig_default_instance_E, i64 0, i32 0, i32 0, i32 1, i64 0), align 8
  store ptr getelementptr inbounds ({ [22 x ptr] }, ptr @_ZTVN11conformance18JspbEncodingConfigE, i64 0, i32 0, i64 2), ptr @_ZN11conformance37_JspbEncodingConfig_default_instance_E, align 8
  store i32 0, ptr getelementptr inbounds (%"class.conformance::JspbEncodingConfigDefaultTypeInternal", ptr @_ZN11conformance37_JspbEncodingConfig_default_instance_E, i64 0, i32 0, i32 0, i32 1, i64 12), align 4
  store i8 0, ptr getelementptr inbounds (%"class.conformance::JspbEncodingConfigDefaultTypeInternal", ptr @_ZN11conformance37_JspbEncodingConfig_default_instance_E, i64 0, i32 0, i32 0, i32 1, i64 8), align 8
  tail call void @_ZN6google8protobuf8internal13OnShutdownRunEPFvPKvES3_(ptr noundef nonnull @_ZN6google8protobuf8internal14DestroyMessageEPKv, ptr noundef nonnull @_ZN11conformance37_JspbEncodingConfig_default_instance_E)
  ret void
}